Certificate:
    Data:
        Version: 3 (0x2)
        Serial Number: 1695 (0x69f)
        Signature Algorithm: sha1WithRSAEncryption
        Issuer: C=DE, L=Frankfurt am Main, O=www.shellfire.de, CN=www.shellfire.de CA/emailAddress=hosting@shellfire.de
        Validity
            Not Before: May 17 06:39:45 2011 GMT
            Not After : May 14 06:39:45 2021 GMT
        Subject: C=DE, L=Frankfurt am Main, O=www.shellfire.de, CN=sf18096/emailAddress=hosting@shellfire.de
        Subject Public Key Info:
            Public Key Algorithm: rsaEncryption
            RSA Public Key: (1024 bit)
                Modulus (1024 bit):
                    00:98:84:63:97:1f:0e:92:1a:39:0c:ba:a7:2b:f7:
                    fd:8a:7d:85:91:8e:9d:65:a3:2e:83:12:a1:74:75:
                    ff:74:a4:24:ac:0b:14:06:b6:cc:45:2a:12:ef:2e:
                    43:6f:cd:29:30:43:a9:18:78:9f:57:3a:1a:de:17:
                    1f:01:d2:3b:d3:0a:2e:8a:f3:0b:84:25:26:43:ab:
                    a7:96:6e:4f:d3:d3:3a:81:6c:a2:bb:33:fe:fe:af:
                    2e:d8:96:45:2f:35:51:64:5d:8b:5e:c4:3c:97:e6:
                    dc:44:2f:84:b1:52:15:f7:ef:08:13:2c:58:16:84:
                    fc:ba:ca:9a:92:2b:6b:5c:8b
                Exponent: 65537 (0x10001)
        X509v3 extensions:
            X509v3 Basic Constraints: 
                CA:FALSE
            Netscape Comment: 
                Easy-RSA Generated Certificate
            X509v3 Subject Key Identifier: 
                9E:29:8A:9B:64:96:F0:41:D3:98:15:9D:16:D6:14:26:AA:8A:48:90
            X509v3 Authority Key Identifier: 
                keyid:1A:29:40:57:E8:65:84:7A:37:0A:72:80:60:10:D8:79:6A:BC:F3:C6
                DirName:/C=DE/L=Frankfurt am Main/O=www.shellfire.de/CN=www.shellfire.de CA/emailAddress=hosting@shellfire.de
                serial:96:D6:D1:35:71:59:0F:F4

            X509v3 Extended Key Usage: 
                TLS Web Client Authentication
            X509v3 Key Usage: 
                Digital Signature
    Signature Algorithm: sha1WithRSAEncryption
        96:f4:4c:79:61:a1:a8:e1:5e:42:4c:7f:d8:32:96:df:33:5e:
        91:80:2e:3c:ee:61:db:7c:9f:e1:bd:0e:4d:37:c2:7a:77:16:
        d0:40:aa:33:2d:4c:9a:71:77:fe:e4:e9:90:0c:83:c9:a4:dd:
        ce:b0:2d:0d:52:97:65:8b:e4:17:37:84:7e:d0:bd:01:26:d6:
        4d:06:f6:ec:67:4d:fa:c1:04:05:16:d4:02:9e:d8:42:6b:ae:
        3e:a9:8f:b9:bf:44:5e:45:0c:2c:e4:bc:71:29:e3:31:0c:89:
        8c:cb:f4:13:e1:40:d6:67:fa:eb:a3:a7:67:19:60:9a:28:03:
        10:74:19:d5:cd:3d:b3:f2:5f:8f:71:99:ea:cb:9d:55:eb:1e:
        8c:a6:b3:73:07:0f:9d:21:0a:d8:ea:97:fe:29:ad:d6:29:6f:
        26:a3:2d:f0:7d:80:dc:39:53:65:38:01:98:a5:b9:d3:95:db:
        7d:13:d7:4f:d7:79:ec:12:26:c8:c2:2e:fe:d6:2a:99:d2:44:
        e6:72:b1:ba:e8:34:1a:11:fd:12:ae:5b:7a:76:aa:90:64:d6:
        a1:12:2a:1c:91:46:65:8a:b2:0d:5f:28:a6:11:4e:2e:49:53:
        91:3e:e5:50:60:66:88:86:1b:df:8d:db:db:3d:1f:61:71:20:
        96:55:21:8e
-----BEGIN CERTIFICATE-----
MIIEOzCCAyOgAwIBAgICBp8wDQYJKoZIhvcNAQEFBQAwgYcxCzAJBgNVBAYTAkRF
MRowGAYDVQQHExFGcmFua2Z1cnQgYW0gTWFpbjEZMBcGA1UEChMQd3d3LnNoZWxs
ZmlyZS5kZTEcMBoGA1UEAxMTd3d3LnNoZWxsZmlyZS5kZSBDQTEjMCEGCSqGSIb3
DQEJARYUaG9zdGluZ0BzaGVsbGZpcmUuZGUwHhcNMTEwNTE3MDYzOTQ1WhcNMjEw
NTE0MDYzOTQ1WjB7MQswCQYDVQQGEwJERTEaMBgGA1UEBxMRRnJhbmtmdXJ0IGFt
IE1haW4xGTAXBgNVBAoTEHd3dy5zaGVsbGZpcmUuZGUxEDAOBgNVBAMTB3NmMTgw
OTYxIzAhBgkqhkiG9w0BCQEWFGhvc3RpbmdAc2hlbGxmaXJlLmRlMIGfMA0GCSqG
SIb3DQEBAQUAA4GNADCBiQKBgQCYhGOXHw6SGjkMuqcr9/2KfYWRjp1loy6DEqF0
df90pCSsCxQGtsxFKhLvLkNvzSkwQ6kYeJ9XOhreFx8B0jvTCi6K8wuEJSZDq6eW
bk/T0zqBbKK7M/7+ry7YlkUvNVFkXYtexDyX5txEL4SxUhX37wgTLFgWhPy6ypqS
K2tciwIDAQABo4IBPjCCATowCQYDVR0TBAIwADAtBglghkgBhvhCAQ0EIBYeRWFz
eS1SU0EgR2VuZXJhdGVkIENlcnRpZmljYXRlMB0GA1UdDgQWBBSeKYqbZJbwQdOY
FZ0W1hQmqopIkDCBvAYDVR0jBIG0MIGxgBQaKUBX6GWEejcKcoBgENh5arzzxqGB
jaSBijCBhzELMAkGA1UEBhMCREUxGjAYBgNVBAcTEUZyYW5rZnVydCBhbSBNYWlu
MRkwFwYDVQQKExB3d3cuc2hlbGxmaXJlLmRlMRwwGgYDVQQDExN3d3cuc2hlbGxm
aXJlLmRlIENBMSMwIQYJKoZIhvcNAQkBFhRob3N0aW5nQHNoZWxsZmlyZS5kZYIJ
AJbW0TVxWQ/0MBMGA1UdJQQMMAoGCCsGAQUFBwMCMAsGA1UdDwQEAwIHgDANBgkq
hkiG9w0BAQUFAAOCAQEAlvRMeWGhqOFeQkx/2DKW3zNekYAuPO5h23yf4b0OTTfC
encW0ECqMy1MmnF3/uTpkAyDyaTdzrAtDVKXZYvkFzeEftC9ASbWTQb27GdN+sEE
BRbUAp7YQmuuPqmPub9EXkUMLOS8cSnjMQyJjMv0E+FA1mf666OnZxlgmigDEHQZ
1c09s/Jfj3GZ6sudVesejKazcwcPnSEK2OqX/imt1ilvJqMt8H2A3DlTZTgBmKW5
05XbfRPXT9d57BImyMIu/tYqmdJE5nKxuug0GhH9Eq5benaqkGTWoRIqHJFGZYqy
DV8ophFOLklTkT7lUGBmiIYb343b2z0fYXEgllUhjg==
-----END CERTIFICATE-----
