Certificate:
    Data:
        Version: 3 (0x2)
        Serial Number: 2001 (0x7d1)
        Signature Algorithm: sha1WithRSAEncryption
        Issuer: C=DE, L=Frankfurt am Main, O=www.shellfire.de, CN=www.shellfire.de CA/emailAddress=hosting@shellfire.de
        Validity
            Not Before: Jul 20 06:29:17 2011 GMT
            Not After : Jul 17 06:29:17 2021 GMT
        Subject: C=DE, L=Frankfurt am Main, O=www.shellfire.de, CN=sf31717/emailAddress=hosting@shellfire.de
        Subject Public Key Info:
            Public Key Algorithm: rsaEncryption
            RSA Public Key: (1024 bit)
                Modulus (1024 bit):
                    00:d7:9c:76:a8:8e:8a:43:61:66:19:78:44:5e:e8:
                    28:78:a0:71:2c:e3:e4:c6:d3:88:26:73:21:00:5e:
                    6d:29:76:32:5e:be:33:ae:f5:64:03:10:76:03:08:
                    ca:ed:1c:3f:bc:9b:f0:2c:8c:43:b0:3f:1f:8f:94:
                    1d:6a:90:50:ca:82:6b:76:72:37:70:47:bf:8d:42:
                    45:d0:e3:e0:de:86:f9:cb:6e:cb:d3:7f:fd:30:aa:
                    0a:4b:a1:6c:f2:aa:cf:31:24:68:0e:e4:1b:a4:13:
                    93:f2:26:31:1f:c0:f0:4a:1e:ad:c7:6a:55:05:f7:
                    c7:11:e6:bb:8b:91:b9:d8:37
                Exponent: 65537 (0x10001)
        X509v3 extensions:
            X509v3 Basic Constraints: 
                CA:FALSE
            Netscape Comment: 
                Easy-RSA Generated Certificate
            X509v3 Subject Key Identifier: 
                37:5C:B6:3A:60:62:9B:46:BE:1E:19:CC:8E:3B:6D:99:FD:34:3E:5B
            X509v3 Authority Key Identifier: 
                keyid:1A:29:40:57:E8:65:84:7A:37:0A:72:80:60:10:D8:79:6A:BC:F3:C6
                DirName:/C=DE/L=Frankfurt am Main/O=www.shellfire.de/CN=www.shellfire.de CA/emailAddress=hosting@shellfire.de
                serial:96:D6:D1:35:71:59:0F:F4

            X509v3 Extended Key Usage: 
                TLS Web Client Authentication
            X509v3 Key Usage: 
                Digital Signature
    Signature Algorithm: sha1WithRSAEncryption
        99:5c:5c:d0:c8:0e:1c:58:5d:80:d6:ad:70:7a:38:3b:18:b2:
        f3:a8:96:3b:23:eb:5a:a5:67:83:8e:85:c1:22:4c:00:ba:d1:
        4d:0a:eb:e4:b1:d8:1a:b6:c1:86:6b:0a:b8:94:0a:f1:44:03:
        ed:d8:95:70:6e:91:64:d2:6c:b5:ea:5f:19:c0:f4:06:2a:23:
        78:a9:4e:1e:1b:c9:2f:ff:ca:74:1b:ab:c3:b1:90:4a:ff:94:
        f4:8b:b4:04:5b:a3:fc:63:9f:32:e7:26:7d:53:06:82:bc:90:
        69:37:7b:1a:3d:b5:5e:99:8f:e6:d6:1e:38:cb:6b:e0:e9:c8:
        3a:32:94:21:b8:82:3b:3c:91:d6:de:d2:08:5a:34:67:06:71:
        8c:26:7f:d3:56:f3:86:1d:09:f1:62:aa:71:1a:ce:2a:cd:ff:
        a8:6d:d3:15:82:ca:cf:24:0c:67:2f:2b:90:01:02:f5:eb:72:
        09:7e:93:ef:3e:c9:62:98:43:01:cf:a1:e0:64:b8:f6:06:ac:
        b0:06:52:3f:0c:de:49:3a:09:32:fc:01:19:42:f9:62:5c:37:
        cf:1d:ca:a3:4d:36:40:80:c4:cd:23:9d:09:14:82:a9:f7:2a:
        c3:f5:a8:4e:19:9d:11:fb:b4:f5:66:9d:19:50:02:d6:75:48:
        df:f7:4b:17
-----BEGIN CERTIFICATE-----
MIIEOzCCAyOgAwIBAgICB9EwDQYJKoZIhvcNAQEFBQAwgYcxCzAJBgNVBAYTAkRF
MRowGAYDVQQHExFGcmFua2Z1cnQgYW0gTWFpbjEZMBcGA1UEChMQd3d3LnNoZWxs
ZmlyZS5kZTEcMBoGA1UEAxMTd3d3LnNoZWxsZmlyZS5kZSBDQTEjMCEGCSqGSIb3
DQEJARYUaG9zdGluZ0BzaGVsbGZpcmUuZGUwHhcNMTEwNzIwMDYyOTE3WhcNMjEw
NzE3MDYyOTE3WjB7MQswCQYDVQQGEwJERTEaMBgGA1UEBxMRRnJhbmtmdXJ0IGFt
IE1haW4xGTAXBgNVBAoTEHd3dy5zaGVsbGZpcmUuZGUxEDAOBgNVBAMTB3NmMzE3
MTcxIzAhBgkqhkiG9w0BCQEWFGhvc3RpbmdAc2hlbGxmaXJlLmRlMIGfMA0GCSqG
SIb3DQEBAQUAA4GNADCBiQKBgQDXnHaojopDYWYZeERe6Ch4oHEs4+TG04gmcyEA
Xm0pdjJevjOu9WQDEHYDCMrtHD+8m/AsjEOwPx+PlB1qkFDKgmt2cjdwR7+NQkXQ
4+DehvnLbsvTf/0wqgpLoWzyqs8xJGgO5BukE5PyJjEfwPBKHq3HalUF98cR5ruL
kbnYNwIDAQABo4IBPjCCATowCQYDVR0TBAIwADAtBglghkgBhvhCAQ0EIBYeRWFz
eS1SU0EgR2VuZXJhdGVkIENlcnRpZmljYXRlMB0GA1UdDgQWBBQ3XLY6YGKbRr4e
GcyOO22Z/TQ+WzCBvAYDVR0jBIG0MIGxgBQaKUBX6GWEejcKcoBgENh5arzzxqGB
jaSBijCBhzELMAkGA1UEBhMCREUxGjAYBgNVBAcTEUZyYW5rZnVydCBhbSBNYWlu
MRkwFwYDVQQKExB3d3cuc2hlbGxmaXJlLmRlMRwwGgYDVQQDExN3d3cuc2hlbGxm
aXJlLmRlIENBMSMwIQYJKoZIhvcNAQkBFhRob3N0aW5nQHNoZWxsZmlyZS5kZYIJ
AJbW0TVxWQ/0MBMGA1UdJQQMMAoGCCsGAQUFBwMCMAsGA1UdDwQEAwIHgDANBgkq
hkiG9w0BAQUFAAOCAQEAmVxc0MgOHFhdgNatcHo4Oxiy86iWOyPrWqVng46FwSJM
ALrRTQrr5LHYGrbBhmsKuJQK8UQD7diVcG6RZNJstepfGcD0BiojeKlOHhvJL//K
dBurw7GQSv+U9Iu0BFuj/GOfMucmfVMGgryQaTd7Gj21XpmP5tYeOMtr4OnIOjKU
IbiCOzyR1t7SCFo0ZwZxjCZ/01bzhh0J8WKqcRrOKs3/qG3TFYLKzyQMZy8rkAEC
9etyCX6T7z7JYphDAc+h4GS49gassAZSPwzeSToJMvwBGUL5Ylw3zx3Ko002QIDE
zSOdCRSCqfcqw/WoThmdEfu09WadGVAC1nVI3/dLFw==
-----END CERTIFICATE-----
